target datalayout = "e-m:e-p270:32:32-p271:32:32-p272:64:64-i64:64-i128:128-f80:128-n8:16:32:64-S128"
target triple = "x86_64-pc-linux-gnu"

%struct.cl_fmap = type { ptr, ptr, ptr, i64, i64, i64, i64, i8, i8, i8, i64, i64, i64, i64, ptr, ptr, ptr, ptr, ptr, ptr, ptr, i8, [16 x i8], i8, [20 x i8], i8, [32 x i8], ptr, ptr }

; Function Attrs: nounwind uwtable
define internal ptr @fmap_need_off_once(ptr noundef %0, i64 noundef %1, i64 noundef %2) #0 {
  %4 = alloca ptr, align 8
  %5 = alloca i64, align 8
  %6 = alloca i64, align 8
  store ptr %0, ptr %4, align 8
  store i64 %1, ptr %5, align 8
  store i64 %2, ptr %6, align 8
  %7 = load ptr, ptr %4, align 8
  %8 = getelementptr inbounds %struct.cl_fmap, ptr %7, i32 0, i32 15
  %9 = load ptr, ptr %8, align 8
  %10 = load ptr, ptr %4, align 8
  %11 = load i64, ptr %5, align 8
  %12 = load i64, ptr %6, align 8
  %13 = call ptr %9(ptr noundef %10, i64 noundef %11, i64 noundef %12, i32 noundef 0)
  ret ptr %13
}

; Function Attrs: nounwind uwtable
define i64 @read_int16_t(ptr noundef %0, i64 noundef %1) #0 {
  %3 = alloca i64, align 8
  %4 = alloca ptr, align 8
  %5 = alloca i64, align 8
  %6 = alloca ptr, align 8
  store ptr %0, ptr %4, align 8
  store i64 %1, ptr %5, align 8
  %7 = load i64, ptr %5, align 8
  %8 = add i64 %7, 2
  %9 = load ptr, ptr %4, align 8
  %10 = getelementptr inbounds %struct.cl_fmap, ptr %9, i32 0, i32 13
  %11 = load i64, ptr %10, align 8
  %12 = icmp uge i64 %8, %11
  br i1 %12, label %13, label %14

13:                                               ; preds = %2
  store i64 -1483400188077313, ptr %3, align 8
  br label %25

14:                                               ; preds = %2
  %15 = load ptr, ptr %4, align 8
  %16 = load i64, ptr %5, align 8
  %17 = call ptr @fmap_need_off_once(ptr noundef %15, i64 noundef %16, i64 noundef 2)
  store ptr %17, ptr %6, align 8
  %18 = load ptr, ptr %6, align 8
  %19 = icmp ne ptr %18, null
  br i1 %19, label %21, label %20

20:                                               ; preds = %14
  store i64 -1483400188077313, ptr %3, align 8
  br label %25

21:                                               ; preds = %14
  %22 = load ptr, ptr %6, align 8
  %23 = load i16, ptr %22, align 2
  %24 = sext i16 %23 to i64
  store i64 %24, ptr %3, align 8
  br label %25

25:                                               ; preds = %21, %20, %13
  %26 = load i64, ptr %3, align 8
  ret i64 %26
}