; Function Attrs: nounwind uwtable
define i64 @read_int16_t(ptr noundef %0, i64 noundef %1) local_unnamed_addr #0 {
  %3 = add i64 %1, 2
  %4 = getelementptr inbounds i8, ptr %0, i64 88
  %5 = load i64, ptr %4, align 8
  %.not = icmp ult i64 %3, %5
  br i1 %.not, label %6, label %13

6:                                                ; preds = %2
  %7 = getelementptr inbounds i8, ptr %0, i64 104
  %8 = load ptr, ptr %7, align 8
  %9 = tail call ptr %8(ptr noundef nonnull %0, i64 noundef %1, i64 noundef 2, i32 noundef 0) #7
  %.not7 = icmp eq ptr %9, null
  br i1 %.not7, label %13, label %10

10:                                               ; preds = %6
  %11 = load i16, ptr %9, align 2
  %12 = sext i16 %11 to i64
  br label %13

13:                                               ; preds = %6, %2, %10
  %.0 = phi i64 [ %12, %10 ], [ -1483400188077313, %2 ], [ -1483400188077313, %6 ]
  ret i64 %.0
}